target datalayout = "e-m:e-p270:32:32-p271:32:32-p272:64:64-i64:64-i128:128-f80:128-n8:16:32:64-S128"
target triple = "x86_64-pc-linux-gnu"

%struct.VVCLocalContext = type { i8, i8, i8, i8, i32, i32, [4 x i8], [3276800 x i8], [16384 x i16], [16384 x i16], [16384 x i16], [32768 x i8], [332800 x i8], [368640 x i8], [368640 x i8], [17424 x i32], %struct.anon, %struct.anon.0, ptr, [2 x [1024 x %struct.ReconstructedArea]], [2 x i32], %struct.NeighbourAvailable, i32, ptr, ptr, ptr, ptr }
%struct.anon = type { i32, i8, i32, i32, i32, [3 x i32], i32, i32, i32, i32, i32, i32 }
%struct.anon.0 = type { i32, i32, i32 }
%struct.ReconstructedArea = type { i32, i32, i32, i32 }
%struct.NeighbourAvailable = type { i32, i32, i32, i32, i32 }
%struct.VVCFrameContext = type { ptr, [17 x %struct.VVCFrame], ptr, ptr, %struct.VVCFrameParamSets, ptr, i32, i32, ptr, %struct.VVCDSPContext, %struct.VideoDSPContext, ptr, i64, ptr, ptr, ptr, ptr, %struct.anon.1 }
%struct.VVCFrame = type { ptr, ptr, ptr, ptr, ptr, ptr, i32, i32, i32, %struct.VVCWindow, i32, i32, ptr, ptr, i16, i8, ptr }
%struct.VVCWindow = type { i16, i16, i16, i16 }
%struct.VVCFrameParamSets = type { ptr, ptr, %struct.VVCPH, [8 x ptr], %struct.VVCLMCS, ptr }
%struct.VVCPH = type { ptr, ptr, i32, i32, i8, [3 x i16], i8, [3 x i16], %struct.PredWeightTable }
%struct.PredWeightTable = type { [2 x i8], [2 x i8], [2 x [2 x [15 x i8]]], [2 x [3 x [15 x i16]]], [2 x [3 x [15 x i16]]] }
%struct.VVCLMCS = type { i8, i8, %union.anon, %union.anon, [17 x i16], [16 x i16] }
%union.anon = type { [4096 x i16] }
%struct.VVCDSPContext = type { %struct.VVCInterDSPContext, %struct.VVCIntraDSPContext, %struct.VVCItxDSPContext, %struct.VVCLMCSDSPContext, %struct.VVCLFDSPContext, %struct.VVCSAODSPContext, %struct.VVCALFDSPContext }
%struct.VVCInterDSPContext = type { [2 x [7 x [2 x [2 x ptr]]]], [2 x [7 x [2 x [2 x ptr]]]], [2 x [7 x [2 x [2 x ptr]]]], [2 x [7 x ptr]], [2 x [7 x ptr]], [2 x [7 x ptr]], ptr, ptr, ptr, ptr, ptr, ptr, ptr, ptr, ptr, ptr, ptr, [2 x [2 x ptr]] }
%struct.VVCIntraDSPContext = type { ptr, ptr, ptr, ptr, ptr, ptr, ptr, ptr, ptr, ptr }
%struct.VVCItxDSPContext = type { ptr, ptr, [3 x [6 x ptr]], ptr, ptr }
%struct.VVCLMCSDSPContext = type { ptr }
%struct.VVCLFDSPContext = type { [2 x ptr], [2 x ptr], [2 x ptr] }
%struct.VVCSAODSPContext = type { [9 x ptr], [9 x ptr], [2 x ptr] }
%struct.VVCALFDSPContext = type { [2 x ptr], ptr, ptr, ptr }
%struct.VideoDSPContext = type { ptr, ptr }
%struct.anon.1 = type { ptr, ptr, ptr, ptr, [2 x ptr], [2 x ptr], [2 x ptr], [2 x ptr], [2 x ptr], [3 x ptr], ptr, ptr, [2 x ptr], ptr, ptr, [2 x ptr], ptr, ptr, ptr, [2 x ptr], ptr, [3 x ptr], ptr, [2 x ptr], [2 x ptr], [2 x ptr], [2 x [3 x ptr]], [2 x ptr], [2 x ptr], [3 x ptr], [3 x ptr], [3 x [2 x ptr]], [3 x [2 x ptr]], ptr, ptr, ptr, [3 x ptr], %struct.anon.2 }
%struct.anon.2 = type { i32, i32, i32, i32, i32, i32, i32, i32, i32, i32, i32, i32 }
%struct.VVCPPS = type { ptr, [3 x i8], [6 x [3 x i8]], i16, i16, [1000 x i16], [1000 x i16], i16, i16, i16, i16, i32, i16, i16, i16, i16, ptr, ptr, ptr, ptr, ptr, i16, i16, i16, i16, i16, [1000 x i16], [1000 x i16], [1000 x i16], [1000 x i16] }

; Function Attrs: nounwind uwtable
define internal i32 @coding_tree_bth(ptr noundef %0, i32 noundef %1, i32 noundef %2, i32 noundef %3, i32 noundef %4, i32 noundef %5, i32 noundef %6, i32 noundef %7, i32 noundef %8, i32 noundef %9, i32 noundef %10, i32 noundef %11, i32 noundef %12) #0 {
  %14 = alloca i32, align 4
  %15 = alloca ptr, align 8
  %16 = alloca i32, align 4
  %17 = alloca i32, align 4
  %18 = alloca i32, align 4
  %19 = alloca i32, align 4
  %20 = alloca i32, align 4
  %21 = alloca i32, align 4
  %22 = alloca i32, align 4
  %23 = alloca i32, align 4
  %24 = alloca i32, align 4
  %25 = alloca i32, align 4
  %26 = alloca i32, align 4
  %27 = alloca i32, align 4
  %28 = alloca ptr, align 8
  %29 = alloca i32, align 4
  %30 = alloca i32, align 4
  %31 = alloca i32, align 4
  store ptr %0, ptr %15, align 8, !tbaa !4
  store i32 %1, ptr %16, align 4, !tbaa !9
  store i32 %2, ptr %17, align 4, !tbaa !9
  store i32 %3, ptr %18, align 4, !tbaa !9
  store i32 %4, ptr %19, align 4, !tbaa !9
  store i32 %5, ptr %20, align 4, !tbaa !9
  store i32 %6, ptr %21, align 4, !tbaa !9
  store i32 %7, ptr %22, align 4, !tbaa !9
  store i32 %8, ptr %23, align 4, !tbaa !9
  store i32 %9, ptr %24, align 4, !tbaa !9
  store i32 %10, ptr %25, align 4, !tbaa !9
  store i32 %11, ptr %26, align 4, !tbaa !9
  store i32 %12, ptr %27, align 4, !tbaa !9
  call void @llvm.lifetime.start.p0(i64 8, ptr %28) #7
  %32 = load ptr, ptr %15, align 8, !tbaa !4
  %33 = getelementptr inbounds nuw %struct.VVCLocalContext, ptr %32, i32 0, i32 24
  %34 = load ptr, ptr %33, align 8, !tbaa !11
  %35 = getelementptr inbounds nuw %struct.VVCFrameContext, ptr %34, i32 0, i32 4
  %36 = getelementptr inbounds nuw %struct.VVCFrameParamSets, ptr %35, i32 0, i32 1
  %37 = load ptr, ptr %36, align 8, !tbaa !59
  store ptr %37, ptr %28, align 8, !tbaa !60
  call void @llvm.lifetime.start.p0(i64 4, ptr %29) #7
  %38 = load i32, ptr %17, align 4, !tbaa !9
  %39 = load i32, ptr %19, align 4, !tbaa !9
  %40 = sdiv i32 %39, 2
  %41 = add nsw i32 %38, %40
  store i32 %41, ptr %29, align 4, !tbaa !9
  call void @llvm.lifetime.start.p0(i64 4, ptr %30) #7
  store i32 0, ptr %30, align 4, !tbaa !9
  %42 = load i32, ptr %17, align 4, !tbaa !9
  %43 = load i32, ptr %19, align 4, !tbaa !9
  %44 = add nsw i32 %42, %43
  %45 = load ptr, ptr %28, align 8, !tbaa !60
  %46 = getelementptr inbounds nuw %struct.VVCPPS, ptr %45, i32 0, i32 4
  %47 = load i16, ptr %46, align 8, !tbaa !83
  %48 = zext i16 %47 to i32
  %49 = icmp sgt i32 %44, %48
  %50 = select i1 %49, i32 1, i32 0
  %51 = load i32, ptr %25, align 4, !tbaa !9
  %52 = add nsw i32 %51, %50
  store i32 %52, ptr %25, align 4, !tbaa !9
  br label %53

53:                                               ; preds = %13
  %54 = load ptr, ptr %15, align 8, !tbaa !4
  %55 = load i32, ptr %16, align 4, !tbaa !9
  %56 = load i32, ptr %17, align 4, !tbaa !9
  %57 = load i32, ptr %18, align 4, !tbaa !9
  %58 = load i32, ptr %19, align 4, !tbaa !9
  %59 = sdiv i32 %58, 2
  %60 = load i32, ptr %20, align 4, !tbaa !9
  %61 = load i32, ptr %21, align 4, !tbaa !9
  %62 = load i32, ptr %22, align 4, !tbaa !9
  %63 = add nsw i32 %62, 1
  %64 = load i32, ptr %23, align 4, !tbaa !9
  %65 = load i32, ptr %24, align 4, !tbaa !9
  %66 = add nsw i32 %65, 1
  %67 = load i32, ptr %25, align 4, !tbaa !9
  %68 = load i32, ptr %26, align 4, !tbaa !9
  %69 = load i32, ptr %27, align 4, !tbaa !9
  %70 = call i32 @hls_coding_tree(ptr noundef %54, i32 noundef %55, i32 noundef %56, i32 noundef %57, i32 noundef %59, i32 noundef %60, i32 noundef %61, i32 noundef %63, i32 noundef %64, i32 noundef %66, i32 noundef %67, i32 noundef 0, i32 noundef 2, i32 noundef %68, i32 noundef %69)
  store i32 %70, ptr %30, align 4, !tbaa !9
  %71 = load i32, ptr %30, align 4, !tbaa !9
  %72 = icmp slt i32 %71, 0
  br i1 %72, label %73, label %75

73:                                               ; preds = %53
  %74 = load i32, ptr %30, align 4, !tbaa !9
  store i32 %74, ptr %14, align 4
  store i32 1, ptr %31, align 4
  br label %111

75:                                               ; preds = %53
  br label %76

76:                                               ; preds = %75
  br label %77

77:                                               ; preds = %76
  %78 = load i32, ptr %29, align 4, !tbaa !9
  %79 = load ptr, ptr %28, align 8, !tbaa !60
  %80 = getelementptr inbounds nuw %struct.VVCPPS, ptr %79, i32 0, i32 4
  %81 = load i16, ptr %80, align 8, !tbaa !83
  %82 = zext i16 %81 to i32
  %83 = icmp slt i32 %78, %82
  br i1 %83, label %84, label %110

84:                                               ; preds = %77
  br label %85

85:                                               ; preds = %84
  %86 = load ptr, ptr %15, align 8, !tbaa !4
  %87 = load i32, ptr %16, align 4, !tbaa !9
  %88 = load i32, ptr %29, align 4, !tbaa !9
  %89 = load i32, ptr %18, align 4, !tbaa !9
  %90 = load i32, ptr %19, align 4, !tbaa !9
  %91 = sdiv i32 %90, 2
  %92 = load i32, ptr %20, align 4, !tbaa !9
  %93 = load i32, ptr %21, align 4, !tbaa !9
  %94 = load i32, ptr %22, align 4, !tbaa !9
  %95 = add nsw i32 %94, 1
  %96 = load i32, ptr %23, align 4, !tbaa !9
  %97 = load i32, ptr %24, align 4, !tbaa !9
  %98 = add nsw i32 %97, 1
  %99 = load i32, ptr %25, align 4, !tbaa !9
  %100 = load i32, ptr %26, align 4, !tbaa !9
  %101 = load i32, ptr %27, align 4, !tbaa !9
  %102 = call i32 @hls_coding_tree(ptr noundef %86, i32 noundef %87, i32 noundef %88, i32 noundef %89, i32 noundef %91, i32 noundef %92, i32 noundef %93, i32 noundef %95, i32 noundef %96, i32 noundef %98, i32 noundef %99, i32 noundef 1, i32 noundef 2, i32 noundef %100, i32 noundef %101)
  store i32 %102, ptr %30, align 4, !tbaa !9
  %103 = load i32, ptr %30, align 4, !tbaa !9
  %104 = icmp slt i32 %103, 0
  br i1 %104, label %105, label %107

105:                                              ; preds = %85
  %106 = load i32, ptr %30, align 4, !tbaa !9
  store i32 %106, ptr %14, align 4
  store i32 1, ptr %31, align 4
  br label %111

107:                                              ; preds = %85
  br label %108

108:                                              ; preds = %107
  br label %109

109:                                              ; preds = %108
  br label %110

110:                                              ; preds = %109, %77
  store i32 0, ptr %14, align 4
  store i32 1, ptr %31, align 4
  br label %111

111:                                              ; preds = %110, %105, %73
  call void @llvm.lifetime.end.p0(i64 4, ptr %30) #7
  call void @llvm.lifetime.end.p0(i64 4, ptr %29) #7
  call void @llvm.lifetime.end.p0(i64 8, ptr %28) #7
  %112 = load i32, ptr %14, align 4
  ret i32 %112
}