; Function Attrs: nounwind uwtable
define internal range(i32 -2147483648, 1) i32 @coding_tree_bth(ptr noundef %0, i32 noundef %1, i32 noundef %2, i32 noundef %3, i32 noundef %4, i32 noundef %5, i32 noundef %6, i32 noundef %7, i32 noundef %8, i32 noundef %9, i32 noundef %10, i32 noundef %11, i32 noundef %12) #0 {
  %14 = getelementptr inbounds nuw i8, ptr %0, i64 4580552
  %15 = load ptr, ptr %14, align 8, !tbaa !4
  %16 = getelementptr inbounds nuw i8, ptr %15, i64 1936
  %17 = load ptr, ptr %16, align 8, !tbaa !54
  %18 = sdiv i32 %4, 2
  %19 = add nsw i32 %18, %2
  %20 = add nsw i32 %4, %2
  %21 = getelementptr inbounds nuw i8, ptr %17, i64 32
  %22 = load i16, ptr %21, align 8, !tbaa !173
  %23 = zext i16 %22 to i32
  %24 = icmp sgt i32 %20, %23
  %25 = zext i1 %24 to i32
  %26 = add nsw i32 %10, %25
  %27 = add nsw i32 %7, 1
  %28 = add nsw i32 %9, 1
  %29 = tail call fastcc i32 @hls_coding_tree(ptr noundef %0, i32 noundef %1, i32 noundef %2, i32 noundef %3, i32 noundef %18, i32 noundef %5, i32 noundef %6, i32 noundef %27, i32 noundef %8, i32 noundef %28, i32 noundef %26, i32 noundef 0, i32 noundef 2, i32 noundef %11, i32 noundef %12)
  %30 = icmp slt i32 %29, 0
  br i1 %30, label %39, label %31

31:                                               ; preds = %13
  %32 = load i16, ptr %21, align 8, !tbaa !173
  %33 = zext i16 %32 to i32
  %34 = icmp slt i32 %19, %33
  br i1 %34, label %35, label %38

35:                                               ; preds = %31
  %36 = tail call fastcc i32 @hls_coding_tree(ptr noundef nonnull %0, i32 noundef %1, i32 noundef %19, i32 noundef %3, i32 noundef %18, i32 noundef %5, i32 noundef %6, i32 noundef %27, i32 noundef %8, i32 noundef %28, i32 noundef %26, i32 noundef 1, i32 noundef 2, i32 noundef %11, i32 noundef %12)
  %37 = icmp slt i32 %36, 0
  br i1 %37, label %39, label %38

38:                                               ; preds = %35, %31
  br label %39

39:                                               ; preds = %35, %13, %38
  %.0 = phi i32 [ 0, %38 ], [ %29, %13 ], [ %36, %35 ]
  ret i32 %.0
}